target datalayout = "e-m:e-p270:32:32-p271:32:32-p272:64:64-i64:64-i128:128-f80:128-n8:16:32:64-S128"
target triple = "x86_64-pc-linux-gnu"

%class.mpff_manager = type <{ i32, i32, %class.svector, i32, i8, [3 x i8], %class.id_gen, [4 x %class.svector], %class.svector, %class.mpff, [8 x i8] }>
%class.id_gen = type { i32, %class.svector }
%class.svector = type { %class.vector }
%class.vector = type { ptr }
%class.mpff = type { i32, i32 }

; Function Attrs: mustprogress uwtable
define hidden void @_ZN12mpff_manager15inc_significandEPjRl(ptr noundef nonnull align 8 dereferenceable(89) %0, ptr noundef %1, ptr noundef nonnull align 8 dereferenceable(8) %2) #4 align 2 {
  %4 = alloca ptr, align 8
  %5 = alloca ptr, align 8
  %6 = alloca ptr, align 8
  store ptr %0, ptr %4, align 8, !tbaa !3
  store ptr %1, ptr %5, align 8, !tbaa !36
  store ptr %2, ptr %6, align 8, !tbaa !43
  %7 = load ptr, ptr %4, align 8
  %8 = getelementptr inbounds nuw %class.mpff_manager, ptr %7, i32 0, i32 0
  %9 = load i32, ptr %8, align 8, !tbaa !10
  %10 = load ptr, ptr %5, align 8, !tbaa !36
  %11 = call noundef zeroext i1 @_Z3incjPj(i32 noundef %9, ptr noundef %10)
  br i1 %11, label %22, label %12

12:                                               ; preds = %3
  %13 = load ptr, ptr %5, align 8, !tbaa !36
  %14 = getelementptr inbounds nuw %class.mpff_manager, ptr %7, i32 0, i32 0
  %15 = load i32, ptr %14, align 8, !tbaa !10
  %16 = sub i32 %15, 1
  %17 = zext i32 %16 to i64
  %18 = getelementptr inbounds nuw i32, ptr %13, i64 %17
  store i32 -2147483648, ptr %18, align 4, !tbaa !8
  %19 = load ptr, ptr %6, align 8, !tbaa !43
  %20 = load i64, ptr %19, align 8, !tbaa !45
  %21 = add nsw i64 %20, 1
  store i64 %21, ptr %19, align 8, !tbaa !45
  br label %22

22:                                               ; preds = %12, %3
  ret void
}