; Function Attrs: mustprogress uwtable
define hidden void @_ZN12mpff_manager15inc_significandEPjRl(ptr noundef nonnull readonly align 8 captures(none) dereferenceable(89) %0, ptr noundef %1, ptr noundef nonnull align 8 captures(none) dereferenceable(8) %2) local_unnamed_addr #3 align 2 {
  %4 = load i32, ptr %0, align 8, !tbaa !13
  %5 = tail call noundef zeroext i1 @_Z3incjPj(i32 noundef %4, ptr noundef %1)
  br i1 %5, label %13, label %6

6:                                                ; preds = %3
  %7 = load i32, ptr %0, align 8, !tbaa !13
  %8 = add i32 %7, -1
  %9 = zext i32 %8 to i64
  %10 = getelementptr inbounds nuw i32, ptr %1, i64 %9
  store i32 -2147483648, ptr %10, align 4, !tbaa !21
  %11 = load i64, ptr %2, align 8, !tbaa !42
  %12 = add nsw i64 %11, 1
  store i64 %12, ptr %2, align 8, !tbaa !42
  br label %13

13:                                               ; preds = %6, %3
  ret void
}